target datalayout = "e-m:e-p270:32:32-p271:32:32-p272:64:64-i64:64-i128:128-f80:128-n8:16:32:64-S128"
target triple = "x86_64-pc-linux-gnu"

; Function Attrs: mustprogress nounwind uwtable
define linkonce_odr noundef nonnull align 4 dereferenceable(4) ptr @_ZSt3minIiERKT_S2_S2_(ptr noundef nonnull align 4 dereferenceable(4) %0, ptr noundef nonnull align 4 dereferenceable(4) %1) #1 comdat {
  %3 = alloca ptr, align 8
  %4 = alloca ptr, align 8
  %5 = alloca ptr, align 8
  store ptr %0, ptr %4, align 8
  store ptr %1, ptr %5, align 8
  %6 = load ptr, ptr %5, align 8
  %7 = load i32, ptr %6, align 4
  %8 = load ptr, ptr %4, align 8
  %9 = load i32, ptr %8, align 4
  %10 = icmp slt i32 %7, %9
  br i1 %10, label %11, label %13

11:                                               ; preds = %2
  %12 = load ptr, ptr %5, align 8
  store ptr %12, ptr %3, align 8
  br label %15

13:                                               ; preds = %2
  %14 = load ptr, ptr %4, align 8
  store ptr %14, ptr %3, align 8
  br label %15

15:                                               ; preds = %13, %11
  %16 = load ptr, ptr %3, align 8
  ret ptr %16
}

; Function Attrs: mustprogress uwtable
define void @_ZN5faiss17simd_histogram_16EPKtitiPi(ptr noundef %0, i32 noundef %1, i16 noundef zeroext %2, i32 noundef %3, ptr noundef %4) #0 {
  %6 = alloca ptr, align 8
  %7 = alloca i32, align 4
  %8 = alloca i16, align 2
  %9 = alloca i32, align 4
  %10 = alloca ptr, align 8
  %11 = alloca i64, align 8
  %12 = alloca i32, align 4
  %13 = alloca i32, align 4
  %14 = alloca i32, align 4
  %15 = alloca i16, align 2
  %16 = alloca i64, align 8
  %17 = alloca i16, align 2
  store ptr %0, ptr %6, align 8
  store i32 %1, ptr %7, align 4
  store i16 %2, ptr %8, align 2
  store i32 %3, ptr %9, align 4
  store ptr %4, ptr %10, align 8
  %18 = load ptr, ptr %10, align 8
  call void @llvm.memset.p0.i64(ptr align 4 %18, i8 0, i64 64, i1 false)
  %19 = load i32, ptr %9, align 4
  %20 = icmp slt i32 %19, 0
  br i1 %20, label %21, label %41

21:                                               ; preds = %5
  store i64 0, ptr %11, align 8
  br label %22

22:                                               ; preds = %37, %21
  %23 = load i64, ptr %11, align 8
  %24 = load i32, ptr %7, align 4
  %25 = sext i32 %24 to i64
  %26 = icmp ult i64 %23, %25
  br i1 %26, label %27, label %40

27:                                               ; preds = %22
  %28 = load ptr, ptr %10, align 8
  %29 = load ptr, ptr %6, align 8
  %30 = load i64, ptr %11, align 8
  %31 = getelementptr inbounds i16, ptr %29, i64 %30
  %32 = load i16, ptr %31, align 2
  %33 = zext i16 %32 to i64
  %34 = getelementptr inbounds i32, ptr %28, i64 %33
  %35 = load i32, ptr %34, align 4
  %36 = add nsw i32 %35, 1
  store i32 %36, ptr %34, align 4
  br label %37

37:                                               ; preds = %27
  %38 = load i64, ptr %11, align 8
  %39 = add i64 %38, 1
  store i64 %39, ptr %11, align 8
  br label %22, !llvm.loop !36

40:                                               ; preds = %22
  br label %93

41:                                               ; preds = %5
  %42 = load i32, ptr %9, align 4
  %43 = shl i32 16, %42
  %44 = load i16, ptr %8, align 2
  %45 = zext i16 %44 to i32
  %46 = add nsw i32 %43, %45
  store i32 %46, ptr %13, align 4
  store i32 65536, ptr %14, align 4
  %47 = call noundef nonnull align 4 dereferenceable(4) ptr @_ZSt3minIiERKT_S2_S2_(ptr noundef nonnull align 4 dereferenceable(4) %13, ptr noundef nonnull align 4 dereferenceable(4) %14)
  %48 = load i32, ptr %47, align 4
  store i32 %48, ptr %12, align 4
  %49 = load i32, ptr %12, align 4
  %50 = sub nsw i32 %49, 1
  %51 = load i16, ptr %8, align 2
  %52 = zext i16 %51 to i32
  %53 = sub nsw i32 %50, %52
  %54 = trunc i32 %53 to i16
  store i16 %54, ptr %15, align 2
  store i64 0, ptr %16, align 8
  br label %55

55:                                               ; preds = %89, %41
  %56 = load i64, ptr %16, align 8
  %57 = load i32, ptr %7, align 4
  %58 = sext i32 %57 to i64
  %59 = icmp ult i64 %56, %58
  br i1 %59, label %60, label %92

60:                                               ; preds = %55
  %61 = load ptr, ptr %6, align 8
  %62 = load i64, ptr %16, align 8
  %63 = getelementptr inbounds i16, ptr %61, i64 %62
  %64 = load i16, ptr %63, align 2
  store i16 %64, ptr %17, align 2
  %65 = load i16, ptr %8, align 2
  %66 = zext i16 %65 to i32
  %67 = load i16, ptr %17, align 2
  %68 = zext i16 %67 to i32
  %69 = sub nsw i32 %68, %66
  %70 = trunc i32 %69 to i16
  store i16 %70, ptr %17, align 2
  %71 = load i16, ptr %17, align 2
  %72 = zext i16 %71 to i32
  %73 = load i16, ptr %15, align 2
  %74 = zext i16 %73 to i32
  %75 = icmp sle i32 %72, %74
  br i1 %75, label %77, label %76

76:                                               ; preds = %60
  br label %89

77:                                               ; preds = %60
  %78 = load i32, ptr %9, align 4
  %79 = load i16, ptr %17, align 2
  %80 = zext i16 %79 to i32
  %81 = ashr i32 %80, %78
  %82 = trunc i32 %81 to i16
  store i16 %82, ptr %17, align 2
  %83 = load ptr, ptr %10, align 8
  %84 = load i16, ptr %17, align 2
  %85 = zext i16 %84 to i64
  %86 = getelementptr inbounds i32, ptr %83, i64 %85
  %87 = load i32, ptr %86, align 4
  %88 = add nsw i32 %87, 1
  store i32 %88, ptr %86, align 4
  br label %89

89:                                               ; preds = %77, %76
  %90 = load i64, ptr %16, align 8
  %91 = add i64 %90, 1
  store i64 %91, ptr %16, align 8
  br label %55, !llvm.loop !37

92:                                               ; preds = %55
  br label %93

93:                                               ; preds = %92, %40
  ret void
}