; Function Attrs: mustprogress nofree norecurse nosync nounwind memory(argmem: readwrite) uwtable
define void @_ZN5faiss17simd_histogram_16EPKtitiPi(ptr nocapture noundef readonly %0, i32 noundef %1, i16 noundef zeroext %2, i32 noundef %3, ptr nocapture noundef %4) local_unnamed_addr #5 {
  tail call void @llvm.memset.p0.i64(ptr noundef nonnull align 4 dereferenceable(64) %4, i8 0, i64 64, i1 false)
  %6 = icmp slt i32 %3, 0
  %7 = sext i32 %1 to i64
  %.not35 = icmp eq i32 %1, 0
  br i1 %6, label %.preheader, label %15

.preheader:                                       ; preds = %5
  br i1 %.not35, label %.loopexit, label %.lr.ph33

.lr.ph33:                                         ; preds = %.preheader, %.lr.ph33
  %.02432 = phi i64 [ %14, %.lr.ph33 ], [ 0, %.preheader ]
  %8 = getelementptr inbounds i16, ptr %0, i64 %.02432
  %9 = load i16, ptr %8, align 2
  %10 = zext i16 %9 to i64
  %11 = getelementptr inbounds i32, ptr %4, i64 %10
  %12 = load i32, ptr %11, align 4
  %13 = add nsw i32 %12, 1
  store i32 %13, ptr %11, align 4
  %14 = add nuw i64 %.02432, 1
  %exitcond37.not = icmp eq i64 %14, %7
  br i1 %exitcond37.not, label %.loopexit, label %.lr.ph33, !llvm.loop !35

15:                                               ; preds = %5
  br i1 %.not35, label %.loopexit, label %.lr.ph

.lr.ph:                                           ; preds = %15
  %16 = shl i32 16, %3
  %17 = zext i16 %2 to i32
  %18 = add nuw nsw i32 %16, %17
  %.sroa.speculated = tail call i32 @llvm.smin.i32(i32 %18, i32 65536)
  %19 = xor i32 %17, -1
  %20 = add i32 %.sroa.speculated, %19
  %21 = and i32 %20, 65535
  br label %22

22:                                               ; preds = %.lr.ph, %33
  %.031 = phi i64 [ 0, %.lr.ph ], [ %34, %33 ]
  %23 = getelementptr inbounds i16, ptr %0, i64 %.031
  %24 = load i16, ptr %23, align 2
  %25 = sub i16 %24, %2
  %26 = zext i16 %25 to i32
  %.not = icmp ult i32 %21, %26
  br i1 %.not, label %33, label %27

27:                                               ; preds = %22
  %28 = lshr i32 %26, %3
  %29 = zext nneg i32 %28 to i64
  %30 = getelementptr inbounds i32, ptr %4, i64 %29
  %31 = load i32, ptr %30, align 4
  %32 = add nsw i32 %31, 1
  store i32 %32, ptr %30, align 4
  br label %33

33:                                               ; preds = %22, %27
  %34 = add nuw i64 %.031, 1
  %exitcond.not = icmp eq i64 %34, %7
  br i1 %exitcond.not, label %.loopexit, label %22, !llvm.loop !36

.loopexit:                                        ; preds = %33, %.lr.ph33, %15, %.preheader
  ret void
}